; Function Attrs: nounwind uwtable
define hidden void @png_push_have_end(ptr noalias noundef %0, ptr noalias noundef %1) local_unnamed_addr #0 {
  %3 = getelementptr inbounds i8, ptr %0, i64 688
  %4 = load ptr, ptr %3, align 8
  %.not = icmp eq ptr %4, null
  br i1 %.not, label %6, label %5

5:                                                ; preds = %2
  tail call void %4(ptr noundef nonnull %0, ptr noundef %1) #11
  br label %6

6:                                                ; preds = %5, %2
  ret void
}